target datalayout = "e-m:e-p270:32:32-p271:32:32-p272:64:64-i64:64-i128:128-f80:128-n8:16:32:64-S128"
target triple = "x86_64-unknown-linux-gnu"

%struct.grpc_server_xds_status_notifier = type { ptr, ptr }
%"class.grpc_core::RefCountedPtr.48" = type { ptr }
%"class.std::__cxx11::basic_string" = type { %"struct.std::__cxx11::basic_string<char>::_Alloc_hider", i64, %union.anon }
%"struct.std::__cxx11::basic_string<char>::_Alloc_hider" = type { ptr }
%union.anon = type { i64, [8 x i8] }
%"class.absl::lts_20230802::Mutex" = type { %"struct.std::atomic.67" }
%"struct.std::atomic.67" = type { %"struct.std::__atomic_base.68" }
%"struct.std::__atomic_base.68" = type { i64 }
%"class.absl::lts_20230802::MutexLock" = type { ptr }
%"class.std::unique_ptr.182" = type { %"struct.std::__uniq_ptr_data.183" }
%"struct.std::__uniq_ptr_data.183" = type { %"class.std::__uniq_ptr_impl.184" }
%"class.std::__uniq_ptr_impl.184" = type { %"class.std::tuple.185" }
%"class.std::tuple.185" = type { %"struct.std::_Tuple_impl.186" }
%"struct.std::_Tuple_impl.186" = type { %"struct.std::_Head_base.189" }
%"struct.std::_Head_base.189" = type { ptr }
%"class.grpc_core::(anonymous namespace)::XdsServerConfigFetcher::ListenerWatcher" = type { %"class.grpc_core::XdsResourceTypeImpl<grpc_core::XdsListenerResourceType, grpc_core::XdsListenerResource>::WatcherInterface", %"class.grpc_core::RefCountedPtr.48", %"class.std::unique_ptr.182", %struct.grpc_server_xds_status_notifier, %"class.std::__cxx11::basic_string", %"class.absl::lts_20230802::Mutex", %"class.grpc_core::RefCountedPtr.195", %"class.grpc_core::RefCountedPtr.195" }
%"class.grpc_core::XdsResourceTypeImpl<grpc_core::XdsListenerResourceType, grpc_core::XdsListenerResource>::WatcherInterface" = type { %"class.grpc_core::XdsClient::ResourceWatcherInterface" }
%"class.grpc_core::XdsClient::ResourceWatcherInterface" = type { %"class.grpc_core::RefCounted" }
%"class.grpc_core::RefCounted" = type { %"class.grpc_core::PolymorphicRefCount", %"class.grpc_core::RefCount" }
%"class.grpc_core::PolymorphicRefCount" = type { ptr }
%"class.grpc_core::RefCount" = type { %"struct.std::atomic.67" }
%"class.grpc_core::RefCountedPtr.195" = type { ptr }
%struct.grpc_serving_status_update = type { i32, ptr }

@.str.2 = private unnamed_addr constant [133 x i8] c"generated/home/dtcxzyw/WorkSpace/Projects/compilers/llvm-opt-benchmark/bench/grpc/grpc/src/core/ext/xds/xds_server_config_fetcher.cc\00", align 1
@.str.12 = private unnamed_addr constant [94 x i8] c"ListenerWatcher:%p XdsClient reports error: %s for %s; ignoring in favor of existing resource\00", align 1
@.str.13 = private unnamed_addr constant [80 x i8] c"ListenerWatcher:%p error obtaining xDS Listener resource: %s; not serving on %s\00", align 1

; Function Attrs: mustprogress nounwind uwtable
define linkonce_odr void @_ZN4absl12lts_202308029MutexLockD2Ev(ptr noundef nonnull align 8 dereferenceable(8) %this) unnamed_addr #5 comdat align 2 personality ptr @__gxx_personality_v0 {
entry:
  %this.addr = alloca ptr, align 8
  store ptr %this, ptr %this.addr, align 8
  %this1 = load ptr, ptr %this.addr, align 8
  %mu_ = getelementptr inbounds %"class.absl::lts_20230802::MutexLock", ptr %this1, i32 0, i32 0
  %0 = load ptr, ptr %mu_, align 8
  invoke void @_ZN4absl12lts_202308025Mutex6UnlockEv(ptr noundef nonnull align 8 dereferenceable(8) %0)
          to label %invoke.cont unwind label %terminate.lpad

invoke.cont:                                      ; preds = %entry
  ret void

terminate.lpad:                                   ; preds = %entry
  %1 = landingpad { ptr, i32 }
          catch ptr null
  %2 = extractvalue { ptr, i32 } %1, 0
  call void @__clang_call_terminate(ptr %2) #21
  unreachable
}

; Function Attrs: mustprogress nounwind uwtable
define internal noundef zeroext i1 @_ZNK9grpc_core13RefCountedPtrINS_12_GLOBAL__N_122XdsServerConfigFetcher15ListenerWatcher23FilterChainMatchManagerEEneEDn(ptr noundef nonnull align 8 dereferenceable(8) %this, ptr %0) #5 align 2 {
entry:
  %this.addr = alloca ptr, align 8
  %.addr = alloca ptr, align 8
  store ptr %this, ptr %this.addr, align 8
  store ptr %0, ptr %.addr, align 8
  %this1 = load ptr, ptr %this.addr, align 8
  %value_ = getelementptr inbounds %"class.grpc_core::RefCountedPtr.195", ptr %this1, i32 0, i32 0
  %1 = load ptr, ptr %value_, align 8
  %cmp = icmp ne ptr %1, null
  ret i1 %cmp
}

; Function Attrs: mustprogress uwtable
define linkonce_odr void @_ZN4absl12lts_202308029MutexLockC2EPNS0_5MutexE(ptr noundef nonnull align 8 dereferenceable(8) %this, ptr noundef %mu) unnamed_addr #4 comdat align 2 {
entry:
  %this.addr = alloca ptr, align 8
  %mu.addr = alloca ptr, align 8
  store ptr %this, ptr %this.addr, align 8
  store ptr %mu, ptr %mu.addr, align 8
  %this1 = load ptr, ptr %this.addr, align 8
  %mu_ = getelementptr inbounds %"class.absl::lts_20230802::MutexLock", ptr %this1, i32 0, i32 0
  %0 = load ptr, ptr %mu.addr, align 8
  store ptr %0, ptr %mu_, align 8
  %mu_2 = getelementptr inbounds %"class.absl::lts_20230802::MutexLock", ptr %this1, i32 0, i32 0
  %1 = load ptr, ptr %mu_2, align 8
  call void @_ZN4absl12lts_202308025Mutex4LockEv(ptr noundef nonnull align 8 dereferenceable(8) %1)
  ret void
}

; Function Attrs: mustprogress uwtable
define internal void @_ZN9grpc_core12_GLOBAL__N_122XdsServerConfigFetcher15ListenerWatcher7OnErrorEN4absl12lts_202308026StatusE(ptr noundef nonnull align 8 dereferenceable(104) %this, ptr noundef %status) unnamed_addr #4 align 2 personality ptr @__gxx_personality_v0 {
entry:
  %this.addr = alloca ptr, align 8
  %status.indirect_addr = alloca ptr, align 8
  %lock = alloca %"class.absl::lts_20230802::MutexLock", align 8
  %exn.slot = alloca ptr, align 8
  %ehselector.slot = alloca i32, align 4
  %ref.tmp = alloca %"class.std::__cxx11::basic_string", align 8
  %agg.tmp = alloca %struct.grpc_serving_status_update, align 8
  %ref.tmp15 = alloca %"class.std::__cxx11::basic_string", align 8
  %ref.tmp21 = alloca %"class.std::__cxx11::basic_string", align 8
  store ptr %this, ptr %this.addr, align 8
  store ptr %status, ptr %status.indirect_addr, align 8
  %this1 = load ptr, ptr %this.addr, align 8
  %mu_ = getelementptr inbounds %"class.grpc_core::(anonymous namespace)::XdsServerConfigFetcher::ListenerWatcher", ptr %this1, i32 0, i32 5
  call void @_ZN4absl12lts_202308029MutexLockC2EPNS0_5MutexE(ptr noundef nonnull align 8 dereferenceable(8) %lock, ptr noundef %mu_)
  %filter_chain_match_manager_ = getelementptr inbounds %"class.grpc_core::(anonymous namespace)::XdsServerConfigFetcher::ListenerWatcher", ptr %this1, i32 0, i32 6
  %call = invoke noundef zeroext i1 @_ZNK9grpc_core13RefCountedPtrINS_12_GLOBAL__N_122XdsServerConfigFetcher15ListenerWatcher23FilterChainMatchManagerEEneEDn(ptr noundef nonnull align 8 dereferenceable(8) %filter_chain_match_manager_, ptr null)
          to label %invoke.cont unwind label %lpad

invoke.cont:                                      ; preds = %entry
  br i1 %call, label %if.then, label %lor.lhs.false

lor.lhs.false:                                    ; preds = %invoke.cont
  %pending_filter_chain_match_manager_ = getelementptr inbounds %"class.grpc_core::(anonymous namespace)::XdsServerConfigFetcher::ListenerWatcher", ptr %this1, i32 0, i32 7
  %call3 = invoke noundef zeroext i1 @_ZNK9grpc_core13RefCountedPtrINS_12_GLOBAL__N_122XdsServerConfigFetcher15ListenerWatcher23FilterChainMatchManagerEEneEDn(ptr noundef nonnull align 8 dereferenceable(8) %pending_filter_chain_match_manager_, ptr null)
          to label %invoke.cont2 unwind label %lpad

invoke.cont2:                                     ; preds = %lor.lhs.false
  br i1 %call3, label %if.then, label %if.else

if.then:                                          ; preds = %invoke.cont2, %invoke.cont
  invoke void @_ZNK4absl12lts_202308026Status8ToStringB5cxx11ENS0_18StatusToStringModeE(ptr sret(%"class.std::__cxx11::basic_string") align 8 %ref.tmp, ptr noundef nonnull align 8 dereferenceable(8) %status, i32 noundef 1)
          to label %invoke.cont4 unwind label %lpad

invoke.cont4:                                     ; preds = %if.then
  %call5 = call noundef ptr @_ZNKSt7__cxx1112basic_stringIcSt11char_traitsIcESaIcEE5c_strEv(ptr noundef nonnull align 8 dereferenceable(32) %ref.tmp) #3
  %listening_address_ = getelementptr inbounds %"class.grpc_core::(anonymous namespace)::XdsServerConfigFetcher::ListenerWatcher", ptr %this1, i32 0, i32 4
  %call6 = call noundef ptr @_ZNKSt7__cxx1112basic_stringIcSt11char_traitsIcESaIcEE5c_strEv(ptr noundef nonnull align 8 dereferenceable(32) %listening_address_) #3
  invoke void (ptr, i32, i32, ptr, ...) @gpr_log(ptr noundef @.str.2, i32 noundef 616, i32 noundef 2, ptr noundef @.str.12, ptr noundef %this1, ptr noundef %call5, ptr noundef %call6)
          to label %invoke.cont8 unwind label %lpad7

invoke.cont8:                                     ; preds = %invoke.cont4
  call void @_ZNSt7__cxx1112basic_stringIcSt11char_traitsIcESaIcEED1Ev(ptr noundef nonnull align 8 dereferenceable(32) %ref.tmp) #3
  br label %if.end28

lpad:                                             ; preds = %if.else20, %if.then9, %if.then, %lor.lhs.false, %entry
  %0 = landingpad { ptr, i32 }
          cleanup
  %1 = extractvalue { ptr, i32 } %0, 0
  store ptr %1, ptr %exn.slot, align 8
  %2 = extractvalue { ptr, i32 } %0, 1
  store i32 %2, ptr %ehselector.slot, align 4
  br label %ehcleanup

lpad7:                                            ; preds = %invoke.cont4
  %3 = landingpad { ptr, i32 }
          cleanup
  %4 = extractvalue { ptr, i32 } %3, 0
  store ptr %4, ptr %exn.slot, align 8
  %5 = extractvalue { ptr, i32 } %3, 1
  store i32 %5, ptr %ehselector.slot, align 4
  call void @_ZNSt7__cxx1112basic_stringIcSt11char_traitsIcESaIcEED1Ev(ptr noundef nonnull align 8 dereferenceable(32) %ref.tmp) #3
  br label %ehcleanup

if.else:                                          ; preds = %invoke.cont2
  %serving_status_notifier_ = getelementptr inbounds %"class.grpc_core::(anonymous namespace)::XdsServerConfigFetcher::ListenerWatcher", ptr %this1, i32 0, i32 3
  %on_serving_status_update = getelementptr inbounds %struct.grpc_server_xds_status_notifier, ptr %serving_status_notifier_, i32 0, i32 0
  %6 = load ptr, ptr %on_serving_status_update, align 8
  %cmp = icmp ne ptr %6, null
  br i1 %cmp, label %if.then9, label %if.else20

if.then9:                                         ; preds = %if.else
  %serving_status_notifier_10 = getelementptr inbounds %"class.grpc_core::(anonymous namespace)::XdsServerConfigFetcher::ListenerWatcher", ptr %this1, i32 0, i32 3
  %on_serving_status_update11 = getelementptr inbounds %struct.grpc_server_xds_status_notifier, ptr %serving_status_notifier_10, i32 0, i32 0
  %7 = load ptr, ptr %on_serving_status_update11, align 8
  %serving_status_notifier_12 = getelementptr inbounds %"class.grpc_core::(anonymous namespace)::XdsServerConfigFetcher::ListenerWatcher", ptr %this1, i32 0, i32 3
  %user_data = getelementptr inbounds %struct.grpc_server_xds_status_notifier, ptr %serving_status_notifier_12, i32 0, i32 1
  %8 = load ptr, ptr %user_data, align 8
  %listening_address_13 = getelementptr inbounds %"class.grpc_core::(anonymous namespace)::XdsServerConfigFetcher::ListenerWatcher", ptr %this1, i32 0, i32 4
  %call14 = call noundef ptr @_ZNKSt7__cxx1112basic_stringIcSt11char_traitsIcESaIcEE5c_strEv(ptr noundef nonnull align 8 dereferenceable(32) %listening_address_13) #3
  %code = getelementptr inbounds %struct.grpc_serving_status_update, ptr %agg.tmp, i32 0, i32 0
  store i32 14, ptr %code, align 8
  %error_message = getelementptr inbounds %struct.grpc_serving_status_update, ptr %agg.tmp, i32 0, i32 1
  invoke void @_ZNK4absl12lts_202308026Status8ToStringB5cxx11ENS0_18StatusToStringModeE(ptr sret(%"class.std::__cxx11::basic_string") align 8 %ref.tmp15, ptr noundef nonnull align 8 dereferenceable(8) %status, i32 noundef 1)
          to label %invoke.cont16 unwind label %lpad

invoke.cont16:                                    ; preds = %if.then9
  %call17 = call noundef ptr @_ZNKSt7__cxx1112basic_stringIcSt11char_traitsIcESaIcEE5c_strEv(ptr noundef nonnull align 8 dereferenceable(32) %ref.tmp15) #3
  store ptr %call17, ptr %error_message, align 8
  %9 = getelementptr inbounds { i32, ptr }, ptr %agg.tmp, i32 0, i32 0
  %10 = load i32, ptr %9, align 8
  %11 = getelementptr inbounds { i32, ptr }, ptr %agg.tmp, i32 0, i32 1
  %12 = load ptr, ptr %11, align 8
  invoke void %7(ptr noundef %8, ptr noundef %call14, i32 %10, ptr %12)
          to label %invoke.cont19 unwind label %lpad18

invoke.cont19:                                    ; preds = %invoke.cont16
  call void @_ZNSt7__cxx1112basic_stringIcSt11char_traitsIcESaIcEED1Ev(ptr noundef nonnull align 8 dereferenceable(32) %ref.tmp15) #3
  br label %if.end

lpad18:                                           ; preds = %invoke.cont16
  %13 = landingpad { ptr, i32 }
          cleanup
  %14 = extractvalue { ptr, i32 } %13, 0
  store ptr %14, ptr %exn.slot, align 8
  %15 = extractvalue { ptr, i32 } %13, 1
  store i32 %15, ptr %ehselector.slot, align 4
  call void @_ZNSt7__cxx1112basic_stringIcSt11char_traitsIcESaIcEED1Ev(ptr noundef nonnull align 8 dereferenceable(32) %ref.tmp15) #3
  br label %ehcleanup

if.else20:                                        ; preds = %if.else
  invoke void @_ZNK4absl12lts_202308026Status8ToStringB5cxx11ENS0_18StatusToStringModeE(ptr sret(%"class.std::__cxx11::basic_string") align 8 %ref.tmp21, ptr noundef nonnull align 8 dereferenceable(8) %status, i32 noundef 1)
          to label %invoke.cont22 unwind label %lpad

invoke.cont22:                                    ; preds = %if.else20
  %call23 = call noundef ptr @_ZNKSt7__cxx1112basic_stringIcSt11char_traitsIcESaIcEE5c_strEv(ptr noundef nonnull align 8 dereferenceable(32) %ref.tmp21) #3
  %listening_address_24 = getelementptr inbounds %"class.grpc_core::(anonymous namespace)::XdsServerConfigFetcher::ListenerWatcher", ptr %this1, i32 0, i32 4
  %call25 = call noundef ptr @_ZNKSt7__cxx1112basic_stringIcSt11char_traitsIcESaIcEE5c_strEv(ptr noundef nonnull align 8 dereferenceable(32) %listening_address_24) #3
  invoke void (ptr, i32, i32, ptr, ...) @gpr_log(ptr noundef @.str.2, i32 noundef 626, i32 noundef 2, ptr noundef @.str.13, ptr noundef %this1, ptr noundef %call23, ptr noundef %call25)
          to label %invoke.cont27 unwind label %lpad26

invoke.cont27:                                    ; preds = %invoke.cont22
  call void @_ZNSt7__cxx1112basic_stringIcSt11char_traitsIcESaIcEED1Ev(ptr noundef nonnull align 8 dereferenceable(32) %ref.tmp21) #3
  br label %if.end

lpad26:                                           ; preds = %invoke.cont22
  %16 = landingpad { ptr, i32 }
          cleanup
  %17 = extractvalue { ptr, i32 } %16, 0
  store ptr %17, ptr %exn.slot, align 8
  %18 = extractvalue { ptr, i32 } %16, 1
  store i32 %18, ptr %ehselector.slot, align 4
  call void @_ZNSt7__cxx1112basic_stringIcSt11char_traitsIcESaIcEED1Ev(ptr noundef nonnull align 8 dereferenceable(32) %ref.tmp21) #3
  br label %ehcleanup

if.end:                                           ; preds = %invoke.cont27, %invoke.cont19
  br label %if.end28

if.end28:                                         ; preds = %if.end, %invoke.cont8
  call void @_ZN4absl12lts_202308029MutexLockD2Ev(ptr noundef nonnull align 8 dereferenceable(8) %lock) #3
  ret void

ehcleanup:                                        ; preds = %lpad26, %lpad18, %lpad7, %lpad
  call void @_ZN4absl12lts_202308029MutexLockD2Ev(ptr noundef nonnull align 8 dereferenceable(8) %lock) #3
  br label %eh.resume

eh.resume:                                        ; preds = %ehcleanup
  %exn = load ptr, ptr %exn.slot, align 8
  %sel = load i32, ptr %ehselector.slot, align 4
  %lpad.val = insertvalue { ptr, i32 } poison, ptr %exn, 0
  %lpad.val29 = insertvalue { ptr, i32 } %lpad.val, i32 %sel, 1
  resume { ptr, i32 } %lpad.val29
}