; Function Attrs: mustprogress uwtable
define internal void @_ZN9grpc_core12_GLOBAL__N_122XdsServerConfigFetcher15ListenerWatcher7OnErrorEN4absl12lts_202308026StatusE(ptr noundef nonnull align 8 dereferenceable(104) %this, ptr noundef %status) unnamed_addr #4 align 2 personality ptr @__gxx_personality_v0 {
entry:
  %ref.tmp = alloca %"class.std::__cxx11::basic_string", align 8
  %ref.tmp15 = alloca %"class.std::__cxx11::basic_string", align 8
  %ref.tmp21 = alloca %"class.std::__cxx11::basic_string", align 8
  %mu_ = getelementptr inbounds i8, ptr %this, i64 80
  tail call void @_ZN4absl12lts_202308025Mutex4LockEv(ptr noundef nonnull align 8 dereferenceable(8) %mu_)
  %filter_chain_match_manager_ = getelementptr inbounds i8, ptr %this, i64 88
  %filter_chain_match_manager_.val = load ptr, ptr %filter_chain_match_manager_, align 8
  %cmp.i = icmp ne ptr %filter_chain_match_manager_.val, null
  %pending_filter_chain_match_manager_ = getelementptr inbounds i8, ptr %this, i64 96
  %pending_filter_chain_match_manager_.val = load ptr, ptr %pending_filter_chain_match_manager_, align 8
  %cmp.i2 = icmp ne ptr %pending_filter_chain_match_manager_.val, null
  %or.cond = select i1 %cmp.i, i1 true, i1 %cmp.i2
  br i1 %or.cond, label %if.then, label %if.else

if.then:                                          ; preds = %entry
  invoke void @_ZNK4absl12lts_202308026Status8ToStringB5cxx11ENS0_18StatusToStringModeE(ptr nonnull sret(%"class.std::__cxx11::basic_string") align 8 %ref.tmp, ptr noundef nonnull align 8 dereferenceable(8) %status, i32 noundef 1)
          to label %invoke.cont4 unwind label %lpad

invoke.cont4:                                     ; preds = %if.then
  %call5 = call noundef ptr @_ZNKSt7__cxx1112basic_stringIcSt11char_traitsIcESaIcEE5c_strEv(ptr noundef nonnull align 8 dereferenceable(32) %ref.tmp) #26
  %listening_address_ = getelementptr inbounds i8, ptr %this, i64 48
  %call6 = call noundef ptr @_ZNKSt7__cxx1112basic_stringIcSt11char_traitsIcESaIcEE5c_strEv(ptr noundef nonnull align 8 dereferenceable(32) %listening_address_) #26
  invoke void (ptr, i32, i32, ptr, ...) @gpr_log(ptr noundef nonnull @.str.2, i32 noundef 616, i32 noundef 2, ptr noundef nonnull @.str.12, ptr noundef nonnull %this, ptr noundef %call5, ptr noundef %call6)
          to label %if.end28 unwind label %lpad7

lpad:                                             ; preds = %if.else20, %if.then9, %if.then
  %0 = landingpad { ptr, i32 }
          cleanup
  br label %ehcleanup

lpad7:                                            ; preds = %invoke.cont4
  %1 = landingpad { ptr, i32 }
          cleanup
  call void @_ZNSt7__cxx1112basic_stringIcSt11char_traitsIcESaIcEED1Ev(ptr noundef nonnull align 8 dereferenceable(32) %ref.tmp) #26
  br label %ehcleanup

if.else:                                          ; preds = %entry
  %serving_status_notifier_ = getelementptr inbounds i8, ptr %this, i64 32
  %2 = load ptr, ptr %serving_status_notifier_, align 8
  %cmp.not = icmp eq ptr %2, null
  br i1 %cmp.not, label %if.else20, label %if.then9

if.then9:                                         ; preds = %if.else
  %user_data = getelementptr inbounds i8, ptr %this, i64 40
  %3 = load ptr, ptr %user_data, align 8
  %listening_address_13 = getelementptr inbounds i8, ptr %this, i64 48
  %call14 = tail call noundef ptr @_ZNKSt7__cxx1112basic_stringIcSt11char_traitsIcESaIcEE5c_strEv(ptr noundef nonnull align 8 dereferenceable(32) %listening_address_13) #26
  invoke void @_ZNK4absl12lts_202308026Status8ToStringB5cxx11ENS0_18StatusToStringModeE(ptr nonnull sret(%"class.std::__cxx11::basic_string") align 8 %ref.tmp15, ptr noundef nonnull align 8 dereferenceable(8) %status, i32 noundef 1)
          to label %invoke.cont16 unwind label %lpad

invoke.cont16:                                    ; preds = %if.then9
  %call17 = call noundef ptr @_ZNKSt7__cxx1112basic_stringIcSt11char_traitsIcESaIcEE5c_strEv(ptr noundef nonnull align 8 dereferenceable(32) %ref.tmp15) #26
  invoke void %2(ptr noundef %3, ptr noundef %call14, i32 14, ptr %call17)
          to label %if.end28 unwind label %lpad18

lpad18:                                           ; preds = %invoke.cont16
  %4 = landingpad { ptr, i32 }
          cleanup
  call void @_ZNSt7__cxx1112basic_stringIcSt11char_traitsIcESaIcEED1Ev(ptr noundef nonnull align 8 dereferenceable(32) %ref.tmp15) #26
  br label %ehcleanup

if.else20:                                        ; preds = %if.else
  invoke void @_ZNK4absl12lts_202308026Status8ToStringB5cxx11ENS0_18StatusToStringModeE(ptr nonnull sret(%"class.std::__cxx11::basic_string") align 8 %ref.tmp21, ptr noundef nonnull align 8 dereferenceable(8) %status, i32 noundef 1)
          to label %invoke.cont22 unwind label %lpad

invoke.cont22:                                    ; preds = %if.else20
  %call23 = call noundef ptr @_ZNKSt7__cxx1112basic_stringIcSt11char_traitsIcESaIcEE5c_strEv(ptr noundef nonnull align 8 dereferenceable(32) %ref.tmp21) #26
  %listening_address_24 = getelementptr inbounds i8, ptr %this, i64 48
  %call25 = call noundef ptr @_ZNKSt7__cxx1112basic_stringIcSt11char_traitsIcESaIcEE5c_strEv(ptr noundef nonnull align 8 dereferenceable(32) %listening_address_24) #26
  invoke void (ptr, i32, i32, ptr, ...) @gpr_log(ptr noundef nonnull @.str.2, i32 noundef 626, i32 noundef 2, ptr noundef nonnull @.str.13, ptr noundef nonnull %this, ptr noundef %call23, ptr noundef %call25)
          to label %if.end28 unwind label %lpad26

lpad26:                                           ; preds = %invoke.cont22
  %5 = landingpad { ptr, i32 }
          cleanup
  call void @_ZNSt7__cxx1112basic_stringIcSt11char_traitsIcESaIcEED1Ev(ptr noundef nonnull align 8 dereferenceable(32) %ref.tmp21) #26
  br label %ehcleanup

if.end28:                                         ; preds = %invoke.cont22, %invoke.cont16, %invoke.cont4
  %ref.tmp15.sink = phi ptr [ %ref.tmp, %invoke.cont4 ], [ %ref.tmp15, %invoke.cont16 ], [ %ref.tmp21, %invoke.cont22 ]
  call void @_ZNSt7__cxx1112basic_stringIcSt11char_traitsIcESaIcEED1Ev(ptr noundef nonnull align 8 dereferenceable(32) %ref.tmp15.sink) #26
  invoke void @_ZN4absl12lts_202308025Mutex6UnlockEv(ptr noundef nonnull align 8 dereferenceable(8) %mu_)
          to label %_ZN4absl12lts_202308029MutexLockD2Ev.exit unwind label %terminate.lpad.i

terminate.lpad.i:                                 ; preds = %if.end28
  %6 = landingpad { ptr, i32 }
          catch ptr null
  %7 = extractvalue { ptr, i32 } %6, 0
  call void @__clang_call_terminate(ptr %7) #30
  unreachable

_ZN4absl12lts_202308029MutexLockD2Ev.exit:        ; preds = %if.end28
  ret void

ehcleanup:                                        ; preds = %lpad26, %lpad18, %lpad7, %lpad
  %.pn = phi { ptr, i32 } [ %1, %lpad7 ], [ %0, %lpad ], [ %4, %lpad18 ], [ %5, %lpad26 ]
  invoke void @_ZN4absl12lts_202308025Mutex6UnlockEv(ptr noundef nonnull align 8 dereferenceable(8) %mu_)
          to label %_ZN4absl12lts_202308029MutexLockD2Ev.exit4 unwind label %terminate.lpad.i3

terminate.lpad.i3:                                ; preds = %ehcleanup
  %8 = landingpad { ptr, i32 }
          catch ptr null
  %9 = extractvalue { ptr, i32 } %8, 0
  call void @__clang_call_terminate(ptr %9) #30
  unreachable

_ZN4absl12lts_202308029MutexLockD2Ev.exit4:       ; preds = %ehcleanup
  resume { ptr, i32 } %.pn
}